; ModuleID = '23/692.c'
source_filename = "23/692.c"
target datalayout = "e-m:e-p270:32:32-p271:32:32-p272:64:64-i64:64-f80:128-n8:16:32:64-S128"
target triple = "x86_64-pc-linux-gnu"

@.str = private unnamed_addr constant [4 x i8] c"%s\0A\00", align 1

; Function Attrs: noinline nounwind uwtable
define dso_local void @fanzhuan(i8* %0, i32 %1, i32 %2) #0 {
  %4 = alloca i8*, align 8
  %5 = alloca i32, align 4
  %6 = alloca i32, align 4
  %7 = alloca i32, align 4
  %8 = alloca i8, align 1
  store i8* %0, i8** %4, align 8
  store i32 %1, i32* %5, align 4
  store i32 %2, i32* %6, align 4
  store i32 0, i32* %7, align 4
  br label %9

9:                                                ; preds = %45, %3
  %10 = load i32, i32* %7, align 4
  %11 = load i32, i32* %6, align 4
  %12 = load i32, i32* %5, align 4
  %13 = sub nsw i32 %11, %12
  %14 = add nsw i32 %13, 1
  %15 = sdiv i32 %14, 2
  %16 = icmp slt i32 %10, %15
  br i1 %16, label %17, label %48

17:                                               ; preds = %9
  %18 = load i8*, i8** %4, align 8
  %19 = load i32, i32* %5, align 4
  %20 = load i32, i32* %7, align 4
  %21 = add nsw i32 %19, %20
  %22 = sext i32 %21 to i64
  %23 = getelementptr inbounds i8, i8* %18, i64 %22
  %24 = load i8, i8* %23, align 1
  store i8 %24, i8* %8, align 1
  %25 = load i8*, i8** %4, align 8
  %26 = load i32, i32* %6, align 4
  %27 = load i32, i32* %7, align 4
  %28 = sub nsw i32 %26, %27
  %29 = sext i32 %28 to i64
  %30 = getelementptr inbounds i8, i8* %25, i64 %29
  %31 = load i8, i8* %30, align 1
  %32 = load i8*, i8** %4, align 8
  %33 = load i32, i32* %5, align 4
  %34 = load i32, i32* %7, align 4
  %35 = add nsw i32 %33, %34
  %36 = sext i32 %35 to i64
  %37 = getelementptr inbounds i8, i8* %32, i64 %36
  store i8 %31, i8* %37, align 1
  %38 = load i8, i8* %8, align 1
  %39 = load i8*, i8** %4, align 8
  %40 = load i32, i32* %6, align 4
  %41 = load i32, i32* %7, align 4
  %42 = sub nsw i32 %40, %41
  %43 = sext i32 %42 to i64
  %44 = getelementptr inbounds i8, i8* %39, i64 %43
  store i8 %38, i8* %44, align 1
  br label %45

45:                                               ; preds = %17
  %46 = load i32, i32* %7, align 4
  %47 = add nsw i32 %46, 1
  store i32 %47, i32* %7, align 4
  br label %9

48:                                               ; preds = %9
  ret void
}

; Function Attrs: noinline nounwind uwtable
define dso_local i32 @main() #0 {
  %1 = alloca i32, align 4
  %2 = alloca [101 x i8], align 16
  %3 = alloca i32, align 4
  %4 = alloca i32, align 4
  store i32 0, i32* %1, align 4
  %5 = getelementptr inbounds [101 x i8], [101 x i8]* %2, i64 0, i64 0
  %6 = call i32 (i8*, ...) bitcast (i32 (...)* @gets to i32 (i8*, ...)*)(i8* %5)
  store i32 0, i32* %3, align 4
  store i32 0, i32* %4, align 4
  br label %7

7:                                                ; preds = %35, %0
  %8 = load i32, i32* %4, align 4
  %9 = getelementptr inbounds [101 x i8], [101 x i8]* %2, i64 0, i64 0
  %10 = call i64 @strlen(i8* %9) #3
  %11 = trunc i64 %10 to i32
  %12 = icmp sle i32 %8, %11
  br i1 %12, label %13, label %38

13:                                               ; preds = %7
  %14 = load i32, i32* %4, align 4
  %15 = sext i32 %14 to i64
  %16 = getelementptr inbounds [101 x i8], [101 x i8]* %2, i64 0, i64 %15
  %17 = load i8, i8* %16, align 1
  %18 = sext i8 %17 to i32
  %19 = icmp eq i32 %18, 32
  br i1 %19, label %27, label %20

20:                                               ; preds = %13
  %21 = load i32, i32* %4, align 4
  %22 = sext i32 %21 to i64
  %23 = getelementptr inbounds [101 x i8], [101 x i8]* %2, i64 0, i64 %22
  %24 = load i8, i8* %23, align 1
  %25 = sext i8 %24 to i32
  %26 = icmp eq i32 %25, 0
  br i1 %26, label %27, label %34

27:                                               ; preds = %20, %13
  %28 = getelementptr inbounds [101 x i8], [101 x i8]* %2, i64 0, i64 0
  %29 = load i32, i32* %3, align 4
  %30 = load i32, i32* %4, align 4
  %31 = sub nsw i32 %30, 1
  call void @fanzhuan(i8* %28, i32 %29, i32 %31)
  %32 = load i32, i32* %4, align 4
  %33 = add nsw i32 %32, 1
  store i32 %33, i32* %3, align 4
  br label %34

34:                                               ; preds = %27, %20
  br label %35

35:                                               ; preds = %34
  %36 = load i32, i32* %4, align 4
  %37 = add nsw i32 %36, 1
  store i32 %37, i32* %4, align 4
  br label %7

38:                                               ; preds = %7
  %39 = getelementptr inbounds [101 x i8], [101 x i8]* %2, i64 0, i64 0
  %40 = getelementptr inbounds [101 x i8], [101 x i8]* %2, i64 0, i64 0
  %41 = call i64 @strlen(i8* %40) #3
  %42 = sub i64 %41, 1
  %43 = trunc i64 %42 to i32
  call void @fanzhuan(i8* %39, i32 0, i32 %43)
  %44 = getelementptr inbounds [101 x i8], [101 x i8]* %2, i64 0, i64 0
  %45 = call i32 (i8*, ...) @printf(i8* getelementptr inbounds ([4 x i8], [4 x i8]* @.str, i64 0, i64 0), i8* %44)
  ret i32 0
}

declare dso_local i32 @gets(...) #1

; Function Attrs: nounwind readonly
declare dso_local i64 @strlen(i8*) #2

declare dso_local i32 @printf(i8*, ...) #1


!llvm.module.flags = !{!0}
!llvm.ident = !{!1}

!0 = !{i32 1, !"wchar_size", i32 4}
!1 = !{!"clang version 10.0.0-4ubuntu1 "}
